target datalayout = "e-m:e-p270:32:32-p271:32:32-p272:64:64-i64:64-i128:128-f80:128-n8:16:32:64-S128"
target triple = "x86_64-pc-linux-gnu"

; Function Attrs: mustprogress nounwind uwtable
define i32 @fstUtilityEscToBin(ptr noundef %0, ptr noundef %1, i32 noundef %2) #8 {
  %4 = alloca ptr, align 8
  %5 = alloca ptr, align 8
  %6 = alloca i32, align 4
  %7 = alloca ptr, align 8
  %8 = alloca ptr, align 8
  %9 = alloca [3 x i8], align 1
  %10 = alloca i32, align 4
  store ptr %0, ptr %4, align 8, !tbaa !6
  store ptr %1, ptr %5, align 8, !tbaa !6
  store i32 %2, ptr %6, align 4, !tbaa !11
  call void @llvm.lifetime.start.p0(i64 8, ptr %7) #15
  %11 = load ptr, ptr %5, align 8, !tbaa !6
  store ptr %11, ptr %7, align 8, !tbaa !6
  call void @llvm.lifetime.start.p0(i64 8, ptr %8) #15
  %12 = load ptr, ptr %4, align 8, !tbaa !6
  %13 = icmp ne ptr %12, null
  br i1 %13, label %16, label %14

14:                                               ; preds = %3
  %15 = load ptr, ptr %5, align 8, !tbaa !6
  br label %18

16:                                               ; preds = %3
  %17 = load ptr, ptr %4, align 8, !tbaa !6
  store ptr %17, ptr %5, align 8, !tbaa !6
  br label %18

18:                                               ; preds = %16, %14
  %19 = phi ptr [ %15, %14 ], [ %17, %16 ]
  store ptr %19, ptr %8, align 8, !tbaa !6
  call void @llvm.lifetime.start.p0(i64 3, ptr %9) #15
  call void @llvm.lifetime.start.p0(i64 4, ptr %10) #15
  store i32 0, ptr %10, align 4, !tbaa !11
  br label %20

20:                                               ; preds = %217, %18
  %21 = load i32, ptr %10, align 4, !tbaa !11
  %22 = load i32, ptr %6, align 4, !tbaa !11
  %23 = icmp slt i32 %21, %22
  br i1 %23, label %24, label %220

24:                                               ; preds = %20
  %25 = load ptr, ptr %7, align 8, !tbaa !6
  %26 = load i32, ptr %10, align 4, !tbaa !11
  %27 = sext i32 %26 to i64
  %28 = getelementptr inbounds i8, ptr %25, i64 %27
  %29 = load i8, ptr %28, align 1, !tbaa !34
  %30 = zext i8 %29 to i32
  %31 = icmp ne i32 %30, 92
  br i1 %31, label %32, label %40

32:                                               ; preds = %24
  %33 = load ptr, ptr %7, align 8, !tbaa !6
  %34 = load i32, ptr %10, align 4, !tbaa !11
  %35 = sext i32 %34 to i64
  %36 = getelementptr inbounds i8, ptr %33, i64 %35
  %37 = load i8, ptr %36, align 1, !tbaa !34
  %38 = load ptr, ptr %8, align 8, !tbaa !6
  %39 = getelementptr inbounds nuw i8, ptr %38, i32 1
  store ptr %39, ptr %8, align 8, !tbaa !6
  store i8 %37, ptr %38, align 1, !tbaa !34
  br label %216

40:                                               ; preds = %24
  %41 = load ptr, ptr %7, align 8, !tbaa !6
  %42 = load i32, ptr %10, align 4, !tbaa !11
  %43 = add nsw i32 %42, 1
  store i32 %43, ptr %10, align 4, !tbaa !11
  %44 = sext i32 %43 to i64
  %45 = getelementptr inbounds i8, ptr %41, i64 %44
  %46 = load i8, ptr %45, align 1, !tbaa !34
  %47 = zext i8 %46 to i32
  switch i32 %47, label %207 [
    i32 97, label %48
    i32 98, label %51
    i32 102, label %54
    i32 110, label %57
    i32 114, label %60
    i32 116, label %63
    i32 118, label %66
    i32 39, label %69
    i32 34, label %72
    i32 92, label %75
    i32 63, label %78
    i32 120, label %81
    i32 48, label %161
    i32 49, label %161
    i32 50, label %161
    i32 51, label %161
    i32 52, label %161
    i32 53, label %161
    i32 54, label %161
    i32 55, label %161
  ]

48:                                               ; preds = %40
  %49 = load ptr, ptr %8, align 8, !tbaa !6
  %50 = getelementptr inbounds nuw i8, ptr %49, i32 1
  store ptr %50, ptr %8, align 8, !tbaa !6
  store i8 7, ptr %49, align 1, !tbaa !34
  br label %215

51:                                               ; preds = %40
  %52 = load ptr, ptr %8, align 8, !tbaa !6
  %53 = getelementptr inbounds nuw i8, ptr %52, i32 1
  store ptr %53, ptr %8, align 8, !tbaa !6
  store i8 8, ptr %52, align 1, !tbaa !34
  br label %215

54:                                               ; preds = %40
  %55 = load ptr, ptr %8, align 8, !tbaa !6
  %56 = getelementptr inbounds nuw i8, ptr %55, i32 1
  store ptr %56, ptr %8, align 8, !tbaa !6
  store i8 12, ptr %55, align 1, !tbaa !34
  br label %215

57:                                               ; preds = %40
  %58 = load ptr, ptr %8, align 8, !tbaa !6
  %59 = getelementptr inbounds nuw i8, ptr %58, i32 1
  store ptr %59, ptr %8, align 8, !tbaa !6
  store i8 10, ptr %58, align 1, !tbaa !34
  br label %215

60:                                               ; preds = %40
  %61 = load ptr, ptr %8, align 8, !tbaa !6
  %62 = getelementptr inbounds nuw i8, ptr %61, i32 1
  store ptr %62, ptr %8, align 8, !tbaa !6
  store i8 13, ptr %61, align 1, !tbaa !34
  br label %215

63:                                               ; preds = %40
  %64 = load ptr, ptr %8, align 8, !tbaa !6
  %65 = getelementptr inbounds nuw i8, ptr %64, i32 1
  store ptr %65, ptr %8, align 8, !tbaa !6
  store i8 9, ptr %64, align 1, !tbaa !34
  br label %215

66:                                               ; preds = %40
  %67 = load ptr, ptr %8, align 8, !tbaa !6
  %68 = getelementptr inbounds nuw i8, ptr %67, i32 1
  store ptr %68, ptr %8, align 8, !tbaa !6
  store i8 11, ptr %67, align 1, !tbaa !34
  br label %215

69:                                               ; preds = %40
  %70 = load ptr, ptr %8, align 8, !tbaa !6
  %71 = getelementptr inbounds nuw i8, ptr %70, i32 1
  store ptr %71, ptr %8, align 8, !tbaa !6
  store i8 39, ptr %70, align 1, !tbaa !34
  br label %215

72:                                               ; preds = %40
  %73 = load ptr, ptr %8, align 8, !tbaa !6
  %74 = getelementptr inbounds nuw i8, ptr %73, i32 1
  store ptr %74, ptr %8, align 8, !tbaa !6
  store i8 34, ptr %73, align 1, !tbaa !34
  br label %215

75:                                               ; preds = %40
  %76 = load ptr, ptr %8, align 8, !tbaa !6
  %77 = getelementptr inbounds nuw i8, ptr %76, i32 1
  store ptr %77, ptr %8, align 8, !tbaa !6
  store i8 92, ptr %76, align 1, !tbaa !34
  br label %215

78:                                               ; preds = %40
  %79 = load ptr, ptr %8, align 8, !tbaa !6
  %80 = getelementptr inbounds nuw i8, ptr %79, i32 1
  store ptr %80, ptr %8, align 8, !tbaa !6
  store i8 63, ptr %79, align 1, !tbaa !34
  br label %215

81:                                               ; preds = %40
  %82 = load ptr, ptr %7, align 8, !tbaa !6
  %83 = load i32, ptr %10, align 4, !tbaa !11
  %84 = add nsw i32 %83, 1
  store i32 %84, ptr %10, align 4, !tbaa !11
  %85 = sext i32 %84 to i64
  %86 = getelementptr inbounds i8, ptr %82, i64 %85
  %87 = load i8, ptr %86, align 1, !tbaa !34
  %88 = zext i8 %87 to i32
  %89 = call i32 @toupper(i32 noundef %88) #17
  %90 = trunc i32 %89 to i8
  %91 = getelementptr inbounds [3 x i8], ptr %9, i64 0, i64 0
  store i8 %90, ptr %91, align 1, !tbaa !34
  %92 = load ptr, ptr %7, align 8, !tbaa !6
  %93 = load i32, ptr %10, align 4, !tbaa !11
  %94 = add nsw i32 %93, 1
  store i32 %94, ptr %10, align 4, !tbaa !11
  %95 = sext i32 %94 to i64
  %96 = getelementptr inbounds i8, ptr %92, i64 %95
  %97 = load i8, ptr %96, align 1, !tbaa !34
  %98 = zext i8 %97 to i32
  %99 = call i32 @toupper(i32 noundef %98) #17
  %100 = trunc i32 %99 to i8
  %101 = getelementptr inbounds [3 x i8], ptr %9, i64 0, i64 1
  store i8 %100, ptr %101, align 1, !tbaa !34
  %102 = getelementptr inbounds [3 x i8], ptr %9, i64 0, i64 0
  %103 = load i8, ptr %102, align 1, !tbaa !34
  %104 = zext i8 %103 to i32
  %105 = icmp sge i32 %104, 65
  br i1 %105, label %106, label %117

106:                                              ; preds = %81
  %107 = getelementptr inbounds [3 x i8], ptr %9, i64 0, i64 0
  %108 = load i8, ptr %107, align 1, !tbaa !34
  %109 = zext i8 %108 to i32
  %110 = icmp sle i32 %109, 70
  br i1 %110, label %111, label %117

111:                                              ; preds = %106
  %112 = getelementptr inbounds [3 x i8], ptr %9, i64 0, i64 0
  %113 = load i8, ptr %112, align 1, !tbaa !34
  %114 = zext i8 %113 to i32
  %115 = sub nsw i32 %114, 65
  %116 = add nsw i32 %115, 10
  br label %122

117:                                              ; preds = %106, %81
  %118 = getelementptr inbounds [3 x i8], ptr %9, i64 0, i64 0
  %119 = load i8, ptr %118, align 1, !tbaa !34
  %120 = zext i8 %119 to i32
  %121 = sub nsw i32 %120, 48
  br label %122

122:                                              ; preds = %117, %111
  %123 = phi i32 [ %116, %111 ], [ %121, %117 ]
  %124 = trunc i32 %123 to i8
  %125 = getelementptr inbounds [3 x i8], ptr %9, i64 0, i64 0
  store i8 %124, ptr %125, align 1, !tbaa !34
  %126 = getelementptr inbounds [3 x i8], ptr %9, i64 0, i64 1
  %127 = load i8, ptr %126, align 1, !tbaa !34
  %128 = zext i8 %127 to i32
  %129 = icmp sge i32 %128, 65
  br i1 %129, label %130, label %141

130:                                              ; preds = %122
  %131 = getelementptr inbounds [3 x i8], ptr %9, i64 0, i64 1
  %132 = load i8, ptr %131, align 1, !tbaa !34
  %133 = zext i8 %132 to i32
  %134 = icmp sle i32 %133, 70
  br i1 %134, label %135, label %141

135:                                              ; preds = %130
  %136 = getelementptr inbounds [3 x i8], ptr %9, i64 0, i64 1
  %137 = load i8, ptr %136, align 1, !tbaa !34
  %138 = zext i8 %137 to i32
  %139 = sub nsw i32 %138, 65
  %140 = add nsw i32 %139, 10
  br label %146

141:                                              ; preds = %130, %122
  %142 = getelementptr inbounds [3 x i8], ptr %9, i64 0, i64 1
  %143 = load i8, ptr %142, align 1, !tbaa !34
  %144 = zext i8 %143 to i32
  %145 = sub nsw i32 %144, 48
  br label %146

146:                                              ; preds = %141, %135
  %147 = phi i32 [ %140, %135 ], [ %145, %141 ]
  %148 = trunc i32 %147 to i8
  %149 = getelementptr inbounds [3 x i8], ptr %9, i64 0, i64 1
  store i8 %148, ptr %149, align 1, !tbaa !34
  %150 = getelementptr inbounds [3 x i8], ptr %9, i64 0, i64 0
  %151 = load i8, ptr %150, align 1, !tbaa !34
  %152 = zext i8 %151 to i32
  %153 = mul nsw i32 %152, 16
  %154 = getelementptr inbounds [3 x i8], ptr %9, i64 0, i64 1
  %155 = load i8, ptr %154, align 1, !tbaa !34
  %156 = zext i8 %155 to i32
  %157 = add nsw i32 %153, %156
  %158 = trunc i32 %157 to i8
  %159 = load ptr, ptr %8, align 8, !tbaa !6
  %160 = getelementptr inbounds nuw i8, ptr %159, i32 1
  store ptr %160, ptr %8, align 8, !tbaa !6
  store i8 %158, ptr %159, align 1, !tbaa !34
  br label %215

161:                                              ; preds = %40, %40, %40, %40, %40, %40, %40, %40
  %162 = load ptr, ptr %7, align 8, !tbaa !6
  %163 = load i32, ptr %10, align 4, !tbaa !11
  %164 = sext i32 %163 to i64
  %165 = getelementptr inbounds i8, ptr %162, i64 %164
  %166 = load i8, ptr %165, align 1, !tbaa !34
  %167 = zext i8 %166 to i32
  %168 = sub nsw i32 %167, 48
  %169 = trunc i32 %168 to i8
  %170 = getelementptr inbounds [3 x i8], ptr %9, i64 0, i64 0
  store i8 %169, ptr %170, align 1, !tbaa !34
  %171 = load ptr, ptr %7, align 8, !tbaa !6
  %172 = load i32, ptr %10, align 4, !tbaa !11
  %173 = add nsw i32 %172, 1
  store i32 %173, ptr %10, align 4, !tbaa !11
  %174 = sext i32 %173 to i64
  %175 = getelementptr inbounds i8, ptr %171, i64 %174
  %176 = load i8, ptr %175, align 1, !tbaa !34
  %177 = zext i8 %176 to i32
  %178 = sub nsw i32 %177, 48
  %179 = trunc i32 %178 to i8
  %180 = getelementptr inbounds [3 x i8], ptr %9, i64 0, i64 1
  store i8 %179, ptr %180, align 1, !tbaa !34
  %181 = load ptr, ptr %7, align 8, !tbaa !6
  %182 = load i32, ptr %10, align 4, !tbaa !11
  %183 = add nsw i32 %182, 1
  store i32 %183, ptr %10, align 4, !tbaa !11
  %184 = sext i32 %183 to i64
  %185 = getelementptr inbounds i8, ptr %181, i64 %184
  %186 = load i8, ptr %185, align 1, !tbaa !34
  %187 = zext i8 %186 to i32
  %188 = sub nsw i32 %187, 48
  %189 = trunc i32 %188 to i8
  %190 = getelementptr inbounds [3 x i8], ptr %9, i64 0, i64 2
  store i8 %189, ptr %190, align 1, !tbaa !34
  %191 = getelementptr inbounds [3 x i8], ptr %9, i64 0, i64 0
  %192 = load i8, ptr %191, align 1, !tbaa !34
  %193 = zext i8 %192 to i32
  %194 = mul nsw i32 %193, 64
  %195 = getelementptr inbounds [3 x i8], ptr %9, i64 0, i64 1
  %196 = load i8, ptr %195, align 1, !tbaa !34
  %197 = zext i8 %196 to i32
  %198 = mul nsw i32 %197, 8
  %199 = add nsw i32 %194, %198
  %200 = getelementptr inbounds [3 x i8], ptr %9, i64 0, i64 2
  %201 = load i8, ptr %200, align 1, !tbaa !34
  %202 = zext i8 %201 to i32
  %203 = add nsw i32 %199, %202
  %204 = trunc i32 %203 to i8
  %205 = load ptr, ptr %8, align 8, !tbaa !6
  %206 = getelementptr inbounds nuw i8, ptr %205, i32 1
  store ptr %206, ptr %8, align 8, !tbaa !6
  store i8 %204, ptr %205, align 1, !tbaa !34
  br label %215

207:                                              ; preds = %40
  %208 = load ptr, ptr %7, align 8, !tbaa !6
  %209 = load i32, ptr %10, align 4, !tbaa !11
  %210 = sext i32 %209 to i64
  %211 = getelementptr inbounds i8, ptr %208, i64 %210
  %212 = load i8, ptr %211, align 1, !tbaa !34
  %213 = load ptr, ptr %8, align 8, !tbaa !6
  %214 = getelementptr inbounds nuw i8, ptr %213, i32 1
  store ptr %214, ptr %8, align 8, !tbaa !6
  store i8 %212, ptr %213, align 1, !tbaa !34
  br label %215

215:                                              ; preds = %207, %161, %146, %78, %75, %72, %69, %66, %63, %60, %57, %54, %51, %48
  br label %216

216:                                              ; preds = %215, %32
  br label %217

217:                                              ; preds = %216
  %218 = load i32, ptr %10, align 4, !tbaa !11
  %219 = add nsw i32 %218, 1
  store i32 %219, ptr %10, align 4, !tbaa !11
  br label %20, !llvm.loop !278

220:                                              ; preds = %20
  %221 = load ptr, ptr %8, align 8, !tbaa !6
  %222 = load ptr, ptr %5, align 8, !tbaa !6
  %223 = ptrtoint ptr %221 to i64
  %224 = ptrtoint ptr %222 to i64
  %225 = sub i64 %223, %224
  %226 = trunc i64 %225 to i32
  call void @llvm.lifetime.end.p0(i64 4, ptr %10) #15
  call void @llvm.lifetime.end.p0(i64 3, ptr %9) #15
  call void @llvm.lifetime.end.p0(i64 8, ptr %8) #15
  call void @llvm.lifetime.end.p0(i64 8, ptr %7) #15
  ret i32 %226
}