; Function Attrs: mustprogress nofree nounwind memory(readwrite, inaccessiblemem: read) uwtable
define i32 @fstUtilityEscToBin(ptr noundef %0, ptr noundef %1, i32 noundef %2) local_unnamed_addr #32 {
  %.not = icmp eq ptr %0, null
  %. = select i1 %.not, ptr %1, ptr %0
  %invariant.gep = getelementptr i8, ptr %1, i64 2
  %4 = icmp sgt i32 %2, 0
  br i1 %4, label %.lr.ph, label %._crit_edge

.lr.ph:                                           ; preds = %3, %51
  %.069 = phi i32 [ %52, %51 ], [ 0, %3 ]
  %.05968 = phi ptr [ %.160, %51 ], [ %., %3 ]
  %5 = sext i32 %.069 to i64
  %6 = getelementptr inbounds i8, ptr %1, i64 %5
  %7 = load i8, ptr %6, align 1, !tbaa !6
  %.not64 = icmp eq i8 %7, 92
  br i1 %.not64, label %8, label %51

8:                                                ; preds = %.lr.ph
  %9 = add nsw i32 %.069, 1
  %10 = sext i32 %9 to i64
  %11 = getelementptr inbounds i8, ptr %1, i64 %10
  %12 = load i8, ptr %11, align 1, !tbaa !6
  switch i8 %12, label %50 [
    i8 97, label %51
    i8 98, label %13
    i8 102, label %14
    i8 110, label %15
    i8 114, label %16
    i8 116, label %17
    i8 118, label %18
    i8 55, label %38
    i8 54, label %38
    i8 53, label %38
    i8 52, label %38
    i8 120, label %19
    i8 48, label %38
    i8 49, label %38
    i8 50, label %38
    i8 51, label %38
  ]

13:                                               ; preds = %8
  br label %51

14:                                               ; preds = %8
  br label %51

15:                                               ; preds = %8
  br label %51

16:                                               ; preds = %8
  br label %51

17:                                               ; preds = %8
  br label %51

18:                                               ; preds = %8
  br label %51

19:                                               ; preds = %8
  %gep67 = getelementptr i8, ptr %invariant.gep, i64 %5
  %20 = load i8, ptr %gep67, align 1, !tbaa !6
  %21 = zext i8 %20 to i32
  %22 = tail call i32 @toupper(i32 noundef %21) #40
  %23 = add nsw i32 %.069, 3
  %24 = sext i32 %23 to i64
  %25 = getelementptr inbounds i8, ptr %1, i64 %24
  %26 = load i8, ptr %25, align 1, !tbaa !6
  %27 = zext i8 %26 to i32
  %28 = tail call i32 @toupper(i32 noundef %27) #40
  %29 = and i32 %22, 255
  %30 = add nsw i32 %29, -65
  %or.cond = icmp ult i32 %30, 6
  %.v = select i1 %or.cond, i32 -55, i32 -48
  %31 = add nsw i32 %.v, %29
  %32 = and i32 %28, 255
  %33 = add nsw i32 %32, -65
  %or.cond7 = icmp ult i32 %33, 6
  %.v65 = select i1 %or.cond7, i32 201, i32 208
  %34 = add i32 %.v65, %28
  %35 = shl nsw i32 %31, 4
  %36 = add i32 %34, %35
  %37 = trunc i32 %36 to i8
  br label %51

38:                                               ; preds = %8, %8, %8, %8, %8, %8, %8, %8
  %gep = getelementptr i8, ptr %invariant.gep, i64 %5
  %39 = load i8, ptr %gep, align 1, !tbaa !6
  %40 = add nsw i32 %.069, 3
  %41 = sext i32 %40 to i64
  %42 = getelementptr inbounds i8, ptr %1, i64 %41
  %43 = load i8, ptr %42, align 1, !tbaa !6
  %44 = shl i8 %12, 6
  %45 = shl i8 %39, 3
  %46 = xor i8 %45, -128
  %47 = add i8 %44, -48
  %48 = add i8 %47, %43
  %49 = add i8 %48, %46
  br label %51

50:                                               ; preds = %8
  br label %51

51:                                               ; preds = %8, %.lr.ph, %50, %38, %19, %18, %17, %16, %15, %14, %13
  %.sink = phi i8 [ %12, %50 ], [ %49, %38 ], [ %37, %19 ], [ 11, %18 ], [ 9, %17 ], [ 13, %16 ], [ 10, %15 ], [ 12, %14 ], [ 8, %13 ], [ %7, %.lr.ph ], [ 7, %8 ]
  %.1 = phi i32 [ %9, %50 ], [ %40, %38 ], [ %23, %19 ], [ %9, %18 ], [ %9, %17 ], [ %9, %16 ], [ %9, %15 ], [ %9, %14 ], [ %9, %13 ], [ %.069, %.lr.ph ], [ %9, %8 ]
  store i8 %.sink, ptr %.05968, align 1, !tbaa !6
  %.160 = getelementptr inbounds nuw i8, ptr %.05968, i64 1
  %52 = add nsw i32 %.1, 1
  %53 = icmp slt i32 %52, %2
  br i1 %53, label %.lr.ph, label %._crit_edge, !llvm.loop !247

._crit_edge:                                      ; preds = %51, %3
  %.059.lcssa = phi ptr [ %., %3 ], [ %.160, %51 ]
  %54 = ptrtoint ptr %.059.lcssa to i64
  %55 = ptrtoint ptr %. to i64
  %56 = sub i64 %54, %55
  %57 = trunc i64 %56 to i32
  ret i32 %57
}